target datalayout = "e-m:e-p270:32:32-p271:32:32-p272:64:64-i64:64-i128:128-f80:128-n8:16:32:64-S128"
target triple = "x86_64-pc-linux-gnu"

%"struct.duckdb_snappy::CompressionOptions" = type { i32 }
%"class.duckdb_snappy::ByteArraySource" = type { %"class.duckdb_snappy::Source", ptr, i64 }
%"class.duckdb_snappy::Source" = type { ptr }
%"class.duckdb_snappy::UncheckedByteArraySink" = type { %"class.duckdb_snappy::Sink", ptr }
%"class.duckdb_snappy::Sink" = type { ptr }

; Function Attrs: mustprogress nounwind uwtable
define linkonce_odr void @_ZN13duckdb_snappy4SinkC2Ev(ptr noundef nonnull align 8 dereferenceable(8) %0) unnamed_addr #0 comdat align 2 {
  %2 = alloca ptr, align 8
  store ptr %0, ptr %2, align 8, !tbaa !73
  %3 = load ptr, ptr %2, align 8
  store ptr getelementptr inbounds inrange(-16, 48) ({ [8 x ptr] }, ptr @_ZTVN13duckdb_snappy4SinkE, i32 0, i32 0, i32 2), ptr %3, align 8, !tbaa !67
  ret void
}

; Function Attrs: mustprogress nounwind uwtable
define linkonce_odr void @_ZN13duckdb_snappy6SourceC2Ev(ptr noundef nonnull align 8 dereferenceable(8) %0) unnamed_addr #0 comdat align 2 {
  %2 = alloca ptr, align 8
  store ptr %0, ptr %2, align 8, !tbaa !71
  %3 = load ptr, ptr %2, align 8
  store ptr getelementptr inbounds inrange(-16, 40) ({ [7 x ptr] }, ptr @_ZTVN13duckdb_snappy6SourceE, i32 0, i32 0, i32 2), ptr %3, align 8, !tbaa !67
  ret void
}

; Function Attrs: mustprogress nounwind uwtable
define linkonce_odr noundef ptr @_ZNK13duckdb_snappy22UncheckedByteArraySink18CurrentDestinationEv(ptr noundef nonnull align 8 dereferenceable(16) %0) #0 comdat align 2 {
  %2 = alloca ptr, align 8
  store ptr %0, ptr %2, align 8, !tbaa !116
  %3 = load ptr, ptr %2, align 8
  %4 = getelementptr inbounds nuw %"class.duckdb_snappy::UncheckedByteArraySink", ptr %3, i32 0, i32 1
  %5 = load ptr, ptr %4, align 8, !tbaa !118
  ret ptr %5
}

; Function Attrs: mustprogress uwtable
define linkonce_odr void @_ZN13duckdb_snappy22UncheckedByteArraySinkC2EPc(ptr noundef nonnull align 8 dereferenceable(16) %0, ptr noundef %1) unnamed_addr #1 comdat align 2 {
  %3 = alloca ptr, align 8
  %4 = alloca ptr, align 8
  store ptr %0, ptr %3, align 8, !tbaa !116
  store ptr %1, ptr %4, align 8, !tbaa !7
  %5 = load ptr, ptr %3, align 8
  call void @_ZN13duckdb_snappy4SinkC2Ev(ptr noundef nonnull align 8 dereferenceable(8) %5)
  store ptr getelementptr inbounds inrange(-16, 48) ({ [8 x ptr] }, ptr @_ZTVN13duckdb_snappy22UncheckedByteArraySinkE, i32 0, i32 0, i32 2), ptr %5, align 8, !tbaa !67
  %6 = getelementptr inbounds nuw %"class.duckdb_snappy::UncheckedByteArraySink", ptr %5, i32 0, i32 1
  %7 = load ptr, ptr %4, align 8, !tbaa !7
  store ptr %7, ptr %6, align 8, !tbaa !118
  ret void
}

; Function Attrs: mustprogress uwtable
define linkonce_odr void @_ZN13duckdb_snappy15ByteArraySourceC2EPKcm(ptr noundef nonnull align 8 dereferenceable(24) %0, ptr noundef %1, i64 noundef %2) unnamed_addr #1 comdat align 2 {
  %4 = alloca ptr, align 8
  %5 = alloca ptr, align 8
  %6 = alloca i64, align 8
  store ptr %0, ptr %4, align 8, !tbaa !83
  store ptr %1, ptr %5, align 8, !tbaa !7
  store i64 %2, ptr %6, align 8, !tbaa !3
  %7 = load ptr, ptr %4, align 8
  call void @_ZN13duckdb_snappy6SourceC2Ev(ptr noundef nonnull align 8 dereferenceable(8) %7)
  store ptr getelementptr inbounds inrange(-16, 40) ({ [7 x ptr] }, ptr @_ZTVN13duckdb_snappy15ByteArraySourceE, i32 0, i32 0, i32 2), ptr %7, align 8, !tbaa !67
  %8 = getelementptr inbounds nuw %"class.duckdb_snappy::ByteArraySource", ptr %7, i32 0, i32 1
  %9 = load ptr, ptr %5, align 8, !tbaa !7
  store ptr %9, ptr %8, align 8, !tbaa !85
  %10 = getelementptr inbounds nuw %"class.duckdb_snappy::ByteArraySource", ptr %7, i32 0, i32 2
  %11 = load i64, ptr %6, align 8, !tbaa !3
  store i64 %11, ptr %10, align 8, !tbaa !88
  ret void
}

; Function Attrs: mustprogress uwtable
define void @_ZN13duckdb_snappy11RawCompressEPKcmPcPmNS_18CompressionOptionsE(ptr noundef %0, i64 noundef %1, ptr noundef %2, ptr noundef %3, i32 %4) #1 personality ptr @__gxx_personality_v0 {
  %6 = alloca %"struct.duckdb_snappy::CompressionOptions", align 4
  %7 = alloca ptr, align 8
  %8 = alloca i64, align 8
  %9 = alloca ptr, align 8
  %10 = alloca ptr, align 8
  %11 = alloca %"class.duckdb_snappy::ByteArraySource", align 8
  %12 = alloca %"class.duckdb_snappy::UncheckedByteArraySink", align 8
  %13 = alloca ptr, align 8
  %14 = alloca i32, align 4
  %15 = alloca %"struct.duckdb_snappy::CompressionOptions", align 4
  %16 = getelementptr inbounds nuw %"struct.duckdb_snappy::CompressionOptions", ptr %6, i32 0, i32 0
  store i32 %4, ptr %16, align 4
  store ptr %0, ptr %7, align 8, !tbaa !7
  store i64 %1, ptr %8, align 8, !tbaa !3
  store ptr %2, ptr %9, align 8, !tbaa !7
  store ptr %3, ptr %10, align 8, !tbaa !10
  call void @llvm.lifetime.start.p0(i64 24, ptr %11) #17
  %17 = load ptr, ptr %7, align 8, !tbaa !7
  %18 = load i64, ptr %8, align 8, !tbaa !3
  call void @_ZN13duckdb_snappy15ByteArraySourceC2EPKcm(ptr noundef nonnull align 8 dereferenceable(24) %11, ptr noundef %17, i64 noundef %18)
  call void @llvm.lifetime.start.p0(i64 16, ptr %12) #17
  %19 = load ptr, ptr %9, align 8, !tbaa !7
  invoke void @_ZN13duckdb_snappy22UncheckedByteArraySinkC2EPc(ptr noundef nonnull align 8 dereferenceable(16) %12, ptr noundef %19)
          to label %20 unwind label %32

20:                                               ; preds = %5
  call void @llvm.memcpy.p0.p0.i64(ptr align 4 %15, ptr align 4 %6, i64 4, i1 false), !tbaa.struct !115
  %21 = getelementptr inbounds nuw %"struct.duckdb_snappy::CompressionOptions", ptr %15, i32 0, i32 0
  %22 = load i32, ptr %21, align 4
  %23 = invoke noundef i64 @_ZN13duckdb_snappy8CompressEPNS_6SourceEPNS_4SinkENS_18CompressionOptionsE(ptr noundef %11, ptr noundef %12, i32 %22)
          to label %24 unwind label %36

24:                                               ; preds = %20
  %25 = invoke noundef ptr @_ZNK13duckdb_snappy22UncheckedByteArraySink18CurrentDestinationEv(ptr noundef nonnull align 8 dereferenceable(16) %12)
          to label %26 unwind label %36

26:                                               ; preds = %24
  %27 = load ptr, ptr %9, align 8, !tbaa !7
  %28 = ptrtoint ptr %25 to i64
  %29 = ptrtoint ptr %27 to i64
  %30 = sub i64 %28, %29
  %31 = load ptr, ptr %10, align 8, !tbaa !10
  store i64 %30, ptr %31, align 8, !tbaa !3
  call void @_ZN13duckdb_snappy22UncheckedByteArraySinkD1Ev(ptr noundef nonnull align 8 dereferenceable(16) %12) #17
  call void @llvm.lifetime.end.p0(i64 16, ptr %12) #17
  call void @_ZN13duckdb_snappy15ByteArraySourceD1Ev(ptr noundef nonnull align 8 dereferenceable(24) %11) #17
  call void @llvm.lifetime.end.p0(i64 24, ptr %11) #17
  ret void

32:                                               ; preds = %5
  %33 = landingpad { ptr, i32 }
          cleanup
  %34 = extractvalue { ptr, i32 } %33, 0
  store ptr %34, ptr %13, align 8
  %35 = extractvalue { ptr, i32 } %33, 1
  store i32 %35, ptr %14, align 4
  br label %40

36:                                               ; preds = %24, %20
  %37 = landingpad { ptr, i32 }
          cleanup
  %38 = extractvalue { ptr, i32 } %37, 0
  store ptr %38, ptr %13, align 8
  %39 = extractvalue { ptr, i32 } %37, 1
  store i32 %39, ptr %14, align 4
  call void @_ZN13duckdb_snappy22UncheckedByteArraySinkD1Ev(ptr noundef nonnull align 8 dereferenceable(16) %12) #17
  br label %40

40:                                               ; preds = %36, %32
  call void @llvm.lifetime.end.p0(i64 16, ptr %12) #17
  call void @_ZN13duckdb_snappy15ByteArraySourceD1Ev(ptr noundef nonnull align 8 dereferenceable(24) %11) #17
  call void @llvm.lifetime.end.p0(i64 24, ptr %11) #17
  br label %41

41:                                               ; preds = %40
  %42 = load ptr, ptr %13, align 8
  %43 = load i32, ptr %14, align 4
  %44 = insertvalue { ptr, i32 } poison, ptr %42, 0
  %45 = insertvalue { ptr, i32 } %44, i32 %43, 1
  resume { ptr, i32 } %45
}